(lp0
(dp1
S'phone'
p2
(dp3
S'cell'
p4
S'123-346-324'
p5
sS'home'
p6
S'234-123-123'
p7
sS'work'
p8
S'123-235-324'
p9
ssS'name'
p10
S'kara'
p11
sS'email'
p12
S'kara@gmail.com'
p13
sa(dp14
S'phone'
p15
(dp16
S'cell'
p17
S'234-654-5521'
p18
sS'home'
p19
S'645-234-434'
p20
sS'work'
p21
S'213-123-534'
p22
ssS'name'
p23
S'owen'
p24
sS'email'
p25
S'crox34@hotmail.com'
p26
sa.