(lp0
(dp1
S'phone'
p2
(dp3
S'cell'
p4
S'123-346-324'
p5
sS'home'
p6
S'234-123-123'
p7
sS'work'
p8
S'123-235-324'
p9
ssS'name'
p10
S'kara'
p11
sS'email'
p12
S'kara@gmail.com'
p13
sa(dp14
S'phone'
p15
(dp16
S'cell'
p17
S'234-654-5521'
p18
sS'home'
p19
S'645-234-434'
p20
sS'work'
p21
S'213-123-534'
p22
ssS'name'
p23
S'owen'
p24
sS'email'
p25
S'crox34@hotmail.com'
p26
sa(dp27
S'phone'
p28
(dp29
S'cell'
p30
S'324-574-4395'
p31
sS'home'
p32
S'234-123-5839'
p33
sS'work'
p34
S'123-123-4535'
p35
ssS'name'
p36
S'beatrice'
p37
sS'email'
p38
S'jumpinlollies@gmail.com'
p39
sa(dp40
S'phone'
p41
(dp42
S'cell'
p43
S'385-394-2495'
p44
sS'home'
p45
S'234-583-6844'
p46
sS'work'
p47
S'123-145-6456'
p48
ssS'name'
p49
S'lucas'
p50
sS'email'
p51
S'fire19@yahoo.com'
p52
sa.