(lp0
(dp1
S'phone'
p2
(dp3
S'cell'
p4
S'221-456-345'
p5
sS'home'
p6
S'559-345-324'
p7
sS'work'
p8
S'834-542-8922'
p9
ssS'name'
p10
S'Emma'
p11
sa(dp12
g2
(dp13
g4
S'339-542-109'
p14
sg6
S'888-205-8421'
p15
sg8
S'766-542-7302'
p16
ssg10
S'Louis'
p17
sa(dp18
g2
(dp19
g4
S'839-103-183'
p20
sg6
S'859-655-2001'
p21
sg8
S'147-069-2938'
p22
ssg10
S'Dwayne'
p23
sa(dp24
g2
(dp25
g4
S'123-123-123'
p26
sg6
S'123-123-123'
p27
sg8
S'123-123-123'
p28
ssg10
S'Carl'
p29
sa.